target datalayout = "e-m:e-p270:32:32-p271:32:32-p272:64:64-i64:64-i128:128-f80:128-n8:16:32:64-S128"
target triple = "x86_64-pc-linux-gnu"

%"class.Ipopt::ReferencedObject.base" = type <{ ptr, i32 }>
%"class.Ipopt::CompoundSymMatrixSpace" = type <{ %"class.Ipopt::SymMatrixSpace.base", i32, %"class.std::vector.10", %"class.std::vector.15", %"class.std::vector.20", i8, [7 x i8] }>
%"class.Ipopt::SymMatrixSpace.base" = type { %"class.Ipopt::MatrixSpace.base" }
%"class.Ipopt::MatrixSpace.base" = type { %"class.Ipopt::ReferencedObject.base", i32, i32 }
%"class.std::vector.10" = type { %"struct.std::_Vector_base.11" }
%"struct.std::_Vector_base.11" = type { %"struct.std::_Vector_base<int, std::allocator<int>>::_Vector_impl" }
%"struct.std::_Vector_base<int, std::allocator<int>>::_Vector_impl" = type { %"struct.std::_Vector_base<int, std::allocator<int>>::_Vector_impl_data" }
%"struct.std::_Vector_base<int, std::allocator<int>>::_Vector_impl_data" = type { ptr, ptr, ptr }
%"class.std::vector.15" = type { %"struct.std::_Vector_base.16" }
%"struct.std::_Vector_base.16" = type { %"struct.std::_Vector_base<std::vector<Ipopt::SmartPtr<const Ipopt::MatrixSpace>>, std::allocator<std::vector<Ipopt::SmartPtr<const Ipopt::MatrixSpace>>>>::_Vector_impl" }
%"struct.std::_Vector_base<std::vector<Ipopt::SmartPtr<const Ipopt::MatrixSpace>>, std::allocator<std::vector<Ipopt::SmartPtr<const Ipopt::MatrixSpace>>>>::_Vector_impl" = type { %"struct.std::_Vector_base<std::vector<Ipopt::SmartPtr<const Ipopt::MatrixSpace>>, std::allocator<std::vector<Ipopt::SmartPtr<const Ipopt::MatrixSpace>>>>::_Vector_impl_data" }
%"struct.std::_Vector_base<std::vector<Ipopt::SmartPtr<const Ipopt::MatrixSpace>>, std::allocator<std::vector<Ipopt::SmartPtr<const Ipopt::MatrixSpace>>>>::_Vector_impl_data" = type { ptr, ptr, ptr }
%"class.std::vector.20" = type { %"struct.std::_Vector_base.21" }
%"struct.std::_Vector_base.21" = type { %"struct.std::_Vector_base<std::vector<bool>, std::allocator<std::vector<bool>>>::_Vector_impl" }
%"struct.std::_Vector_base<std::vector<bool>, std::allocator<std::vector<bool>>>::_Vector_impl" = type { %"struct.std::_Vector_base<std::vector<bool>, std::allocator<std::vector<bool>>>::_Vector_impl_data" }
%"struct.std::_Vector_base<std::vector<bool>, std::allocator<std::vector<bool>>>::_Vector_impl_data" = type { ptr, ptr, ptr }

; Function Attrs: mustprogress nounwind uwtable
define linkonce_odr noundef nonnull align 4 dereferenceable(4) ptr @_ZNKSt6vectorIiSaIiEEixEm(ptr noundef nonnull align 8 dereferenceable(24) %0, i64 noundef %1) #2 comdat align 2 {
  %3 = alloca ptr, align 8
  %4 = alloca i64, align 8
  store ptr %0, ptr %3, align 8, !tbaa !148
  store i64 %1, ptr %4, align 8, !tbaa !55
  %5 = load ptr, ptr %3, align 8
  %6 = getelementptr inbounds nuw %"struct.std::_Vector_base.11", ptr %5, i32 0, i32 0
  %7 = getelementptr inbounds nuw %"struct.std::_Vector_base<int, std::allocator<int>>::_Vector_impl_data", ptr %6, i32 0, i32 0
  %8 = load ptr, ptr %7, align 8, !tbaa !178
  %9 = load i64, ptr %4, align 8, !tbaa !55
  %10 = getelementptr inbounds nuw i32, ptr %8, i64 %9
  ret ptr %10
}

; Function Attrs: mustprogress nounwind uwtable
define noundef zeroext i1 @_ZNK5Ipopt22CompoundSymMatrixSpace13DimensionsSetEv(ptr noundef nonnull align 8 dereferenceable(97) %0) #2 align 2 {
  %2 = alloca ptr, align 8
  %3 = alloca i8, align 1
  %4 = alloca i32, align 4
  %5 = alloca i32, align 4
  store ptr %0, ptr %2, align 8, !tbaa !8
  %6 = load ptr, ptr %2, align 8
  call void @llvm.lifetime.start.p0(i64 1, ptr %3) #18
  store i8 1, ptr %3, align 1, !tbaa !108
  call void @llvm.lifetime.start.p0(i64 4, ptr %4) #18
  store i32 0, ptr %4, align 4, !tbaa !41
  br label %7

7:                                                ; preds = %22, %1
  %8 = load i32, ptr %4, align 4, !tbaa !41
  %9 = getelementptr inbounds nuw %"class.Ipopt::CompoundSymMatrixSpace", ptr %6, i32 0, i32 1
  %10 = load i32, ptr %9, align 4, !tbaa !78
  %11 = icmp slt i32 %8, %10
  br i1 %11, label %13, label %12

12:                                               ; preds = %7
  store i32 2, ptr %5, align 4
  br label %25

13:                                               ; preds = %7
  %14 = getelementptr inbounds nuw %"class.Ipopt::CompoundSymMatrixSpace", ptr %6, i32 0, i32 2
  %15 = load i32, ptr %4, align 4, !tbaa !41
  %16 = sext i32 %15 to i64
  %17 = call noundef nonnull align 4 dereferenceable(4) ptr @_ZNKSt6vectorIiSaIiEEixEm(ptr noundef nonnull align 8 dereferenceable(24) %14, i64 noundef %16) #18
  %18 = load i32, ptr %17, align 4, !tbaa !41
  %19 = icmp eq i32 %18, -1
  br i1 %19, label %20, label %21

20:                                               ; preds = %13
  store i8 0, ptr %3, align 1, !tbaa !108
  store i32 2, ptr %5, align 4
  br label %25

21:                                               ; preds = %13
  br label %22

22:                                               ; preds = %21
  %23 = load i32, ptr %4, align 4, !tbaa !41
  %24 = add nsw i32 %23, 1
  store i32 %24, ptr %4, align 4, !tbaa !41
  br label %7, !llvm.loop !181

25:                                               ; preds = %20, %12
  call void @llvm.lifetime.end.p0(i64 4, ptr %4) #18
  br label %26

26:                                               ; preds = %25
  %27 = load i8, ptr %3, align 1, !tbaa !108, !range !101, !noundef !102
  %28 = trunc i8 %27 to i1
  br i1 %28, label %29, label %30

29:                                               ; preds = %26
  br label %30

30:                                               ; preds = %29, %26
  %31 = load i8, ptr %3, align 1, !tbaa !108, !range !101, !noundef !102
  %32 = trunc i8 %31 to i1
  store i32 1, ptr %5, align 4
  call void @llvm.lifetime.end.p0(i64 1, ptr %3) #18
  ret i1 %32
}