; Function Attrs: mustprogress nofree norecurse nosync nounwind willreturn memory(read, inaccessiblemem: none) uwtable
define noundef zeroext i1 @_ZNK5Ipopt22CompoundSymMatrixSpace13DimensionsSetEv(ptr noundef nonnull readonly align 8 captures(none) dereferenceable(97) %0) local_unnamed_addr #2 align 2 {
  %2 = getelementptr inbounds nuw i8, ptr %0, i64 20
  %3 = load i32, ptr %2, align 4, !tbaa !42
  %4 = icmp slt i32 %3, 1
  br i1 %4, label %._crit_edge, label %.lr.ph

.lr.ph:                                           ; preds = %1
  %5 = getelementptr inbounds nuw i8, ptr %0, i64 24
  %6 = load ptr, ptr %5, align 8, !tbaa !189
  %wide.trip.count = zext nneg i32 %3 to i64
  br label %7

7:                                                ; preds = %7, %.lr.ph
  %indvars.iv = phi i64 [ 0, %.lr.ph ], [ %indvars.iv.next, %7 ]
  %8 = getelementptr inbounds nuw i32, ptr %6, i64 %indvars.iv
  %9 = load i32, ptr %8, align 4, !tbaa !191
  %.not = icmp ne i32 %9, -1
  %indvars.iv.next = add nuw nsw i64 %indvars.iv, 1
  %exitcond.not = icmp ne i64 %indvars.iv.next, %wide.trip.count
  %or.cond.not = select i1 %.not, i1 %exitcond.not, i1 false
  br i1 %or.cond.not, label %7, label %._crit_edge, !llvm.loop !213

._crit_edge:                                      ; preds = %7, %1
  %.lcssa = phi i1 [ true, %1 ], [ %.not, %7 ]
  ret i1 %.lcssa
}